target datalayout = "e-m:e-p270:32:32-p271:32:32-p272:64:64-i64:64-i128:128-f80:128-n8:16:32:64-S128"
target triple = "x86_64-pc-linux-gnu"

%struct.SDL_CameraDriver = type { ptr, ptr, %struct.SDL_CameraDriverImpl, ptr, ptr, %struct.SDL_PendingCameraEvent, ptr, %struct.SDL_AtomicInt, %struct.SDL_AtomicInt }
%struct.SDL_CameraDriverImpl = type { ptr, ptr, ptr, ptr, ptr, ptr, ptr, ptr, i8 }
%struct.SDL_PendingCameraEvent = type { i32, i32, ptr }
%struct.SDL_AtomicInt = type { i32 }
%struct.SDL_Camera = type { ptr, ptr, i32, %struct.SDL_AtomicInt, ptr, ptr, ptr, ptr, i32, %struct.SDL_CameraSpec, %struct.SDL_CameraSpec, i32, ptr, i32, i64, i64, ptr, ptr, [8 x %struct.SurfaceList], %struct.SurfaceList, %struct.SurfaceList, %struct.SurfaceList, ptr, i32, i8, %struct.SDL_AtomicInt, %struct.SDL_AtomicInt, ptr, i32, i32, ptr }
%struct.SDL_CameraSpec = type { i32, i32, i32, i32, i32, i32 }
%struct.SurfaceList = type { ptr, i64, ptr }

@.str = private unnamed_addr constant [26 x i8] c"Parameter '%s' is invalid\00", align 1
@camera_driver = internal global %struct.SDL_CameraDriver zeroinitializer, align 8
@.str.5 = private unnamed_addr constant [7 x i8] c"camera\00", align 1
@.str.6 = private unnamed_addr constant [5 x i8] c"spec\00", align 1
@.str.7 = private unnamed_addr constant [39 x i8] c"Camera permission has not been granted\00", align 1

; Function Attrs: nounwind uwtable
define hidden void @UnrefPhysicalCamera(ptr noundef %0) #0 {
  %2 = alloca ptr, align 8
  store ptr %0, ptr %2, align 8
  %3 = load ptr, ptr %2, align 8
  %4 = getelementptr inbounds nuw %struct.SDL_Camera, ptr %3, i32 0, i32 3
  %5 = call i32 @SDL_AddAtomicInt_REAL(ptr noundef %4, i32 noundef -1)
  %6 = icmp eq i32 %5, 1
  br i1 %6, label %7, label %20

7:                                                ; preds = %1
  %8 = load ptr, ptr getelementptr inbounds nuw (%struct.SDL_CameraDriver, ptr @camera_driver, i32 0, i32 3), align 8
  call void @SDL_LockRWLockForWriting_REAL(ptr noundef %8)
  %9 = load ptr, ptr getelementptr inbounds nuw (%struct.SDL_CameraDriver, ptr @camera_driver, i32 0, i32 4), align 8
  %10 = load ptr, ptr %2, align 8
  %11 = getelementptr inbounds nuw %struct.SDL_Camera, ptr %10, i32 0, i32 11
  %12 = load i32, ptr %11, align 4
  %13 = zext i32 %12 to i64
  %14 = inttoptr i64 %13 to ptr
  %15 = call zeroext i1 @SDL_RemoveFromHashTable(ptr noundef %9, ptr noundef %14)
  br i1 %15, label %16, label %18

16:                                               ; preds = %7
  %17 = call i32 @SDL_AddAtomicInt_REAL(ptr noundef getelementptr inbounds nuw (%struct.SDL_CameraDriver, ptr @camera_driver, i32 0, i32 7), i32 noundef -1)
  br label %18

18:                                               ; preds = %16, %7
  %19 = load ptr, ptr getelementptr inbounds nuw (%struct.SDL_CameraDriver, ptr @camera_driver, i32 0, i32 3), align 8
  call void @SDL_UnlockRWLock_REAL(ptr noundef %19)
  br label %20

20:                                               ; preds = %18, %1
  ret void
}

; Function Attrs: nounwind uwtable
define hidden void @RefPhysicalCamera(ptr noundef %0) #0 {
  %2 = alloca ptr, align 8
  store ptr %0, ptr %2, align 8
  %3 = load ptr, ptr %2, align 8
  %4 = getelementptr inbounds nuw %struct.SDL_Camera, ptr %3, i32 0, i32 3
  %5 = call i32 @SDL_AddAtomicInt_REAL(ptr noundef %4, i32 noundef 1)
  ret void
}

; Function Attrs: nounwind uwtable
define internal void @ReleaseCamera(ptr noundef %0) #0 {
  %2 = alloca ptr, align 8
  store ptr %0, ptr %2, align 8
  %3 = load ptr, ptr %2, align 8
  %4 = icmp ne ptr %3, null
  br i1 %4, label %5, label %10

5:                                                ; preds = %1
  %6 = load ptr, ptr %2, align 8
  %7 = getelementptr inbounds nuw %struct.SDL_Camera, ptr %6, i32 0, i32 0
  %8 = load ptr, ptr %7, align 8
  call void @SDL_UnlockMutex_REAL(ptr noundef %8)
  %9 = load ptr, ptr %2, align 8
  call void @UnrefPhysicalCamera(ptr noundef %9)
  br label %10

10:                                               ; preds = %5, %1
  ret void
}

; Function Attrs: nounwind uwtable
define internal void @ObtainPhysicalCameraObj(ptr noundef %0) #0 {
  %2 = alloca ptr, align 8
  store ptr %0, ptr %2, align 8
  %3 = load ptr, ptr %2, align 8
  %4 = icmp ne ptr %3, null
  br i1 %4, label %5, label %10

5:                                                ; preds = %1
  %6 = load ptr, ptr %2, align 8
  call void @RefPhysicalCamera(ptr noundef %6)
  %7 = load ptr, ptr %2, align 8
  %8 = getelementptr inbounds nuw %struct.SDL_Camera, ptr %7, i32 0, i32 0
  %9 = load ptr, ptr %8, align 8
  call void @SDL_LockMutex_REAL(ptr noundef %9)
  br label %10

10:                                               ; preds = %5, %1
  ret void
}

; Function Attrs: nounwind uwtable
define hidden zeroext i1 @SDL_GetCameraFormat_REAL(ptr noundef %0, ptr noundef %1) #0 {
  %3 = alloca i1, align 1
  %4 = alloca ptr, align 8
  %5 = alloca ptr, align 8
  %6 = alloca i8, align 1
  %7 = alloca i32, align 4
  %8 = alloca ptr, align 8
  store ptr %0, ptr %4, align 8
  store ptr %1, ptr %5, align 8
  call void @llvm.lifetime.start.p0(i64 1, ptr %6) #7
  %9 = load ptr, ptr %4, align 8
  %10 = icmp ne ptr %9, null
  br i1 %10, label %13, label %11

11:                                               ; preds = %2
  %12 = call zeroext i1 (ptr, ...) @SDL_SetError_REAL(ptr noundef @.str, ptr noundef @.str.5)
  store i1 %12, ptr %3, align 1
  store i32 1, ptr %7, align 4
  br label %38

13:                                               ; preds = %2
  %14 = load ptr, ptr %5, align 8
  %15 = icmp ne ptr %14, null
  br i1 %15, label %18, label %16

16:                                               ; preds = %13
  %17 = call zeroext i1 (ptr, ...) @SDL_SetError_REAL(ptr noundef @.str, ptr noundef @.str.6)
  store i1 %17, ptr %3, align 1
  store i32 1, ptr %7, align 4
  br label %38

18:                                               ; preds = %13
  br label %19

19:                                               ; preds = %18
  call void @llvm.lifetime.start.p0(i64 8, ptr %8) #7
  %20 = load ptr, ptr %4, align 8
  store ptr %20, ptr %8, align 8
  %21 = load ptr, ptr %8, align 8
  call void @ObtainPhysicalCameraObj(ptr noundef %21)
  %22 = load ptr, ptr %8, align 8
  %23 = getelementptr inbounds nuw %struct.SDL_Camera, ptr %22, i32 0, i32 29
  %24 = load i32, ptr %23, align 4
  %25 = icmp sgt i32 %24, 0
  br i1 %25, label %26, label %30

26:                                               ; preds = %19
  %27 = load ptr, ptr %5, align 8
  %28 = load ptr, ptr %8, align 8
  %29 = getelementptr inbounds nuw %struct.SDL_Camera, ptr %28, i32 0, i32 10
  call void @llvm.memcpy.p0.p0.i64(ptr align 4 %27, ptr align 4 %29, i64 24, i1 false)
  store i8 1, ptr %6, align 1
  br label %34

30:                                               ; preds = %19
  %31 = load ptr, ptr %5, align 8
  call void @llvm.memset.p0.i64(ptr align 4 %31, i8 0, i64 24, i1 false)
  %32 = call zeroext i1 (ptr, ...) @SDL_SetError_REAL(ptr noundef @.str.7)
  %33 = zext i1 %32 to i8
  store i8 %33, ptr %6, align 1
  br label %34

34:                                               ; preds = %30, %26
  %35 = load ptr, ptr %8, align 8
  call void @ReleaseCamera(ptr noundef %35)
  %36 = load i8, ptr %6, align 1, !range !5, !noundef !6
  %37 = trunc i8 %36 to i1
  store i1 %37, ptr %3, align 1
  store i32 1, ptr %7, align 4
  call void @llvm.lifetime.end.p0(i64 8, ptr %8) #7
  br label %38

38:                                               ; preds = %34, %16, %11
  call void @llvm.lifetime.end.p0(i64 1, ptr %6) #7
  %39 = load i1, ptr %3, align 1
  ret i1 %39
}