; Function Attrs: nounwind uwtable
define hidden zeroext i1 @SDL_GetCameraFormat_REAL(ptr noundef %0, ptr noundef writeonly captures(address_is_null) %1) local_unnamed_addr #1 {
  %.not = icmp eq ptr %0, null
  br i1 %.not, label %3, label %5

3:                                                ; preds = %2
  %4 = tail call zeroext i1 (ptr, ...) @SDL_SetError_REAL(ptr noundef nonnull @.str, ptr noundef nonnull @.str.5) #11
  br label %ReleaseCamera.exit

5:                                                ; preds = %2
  %.not13 = icmp eq ptr %1, null
  br i1 %.not13, label %6, label %8

6:                                                ; preds = %5
  %7 = tail call zeroext i1 (ptr, ...) @SDL_SetError_REAL(ptr noundef nonnull @.str, ptr noundef nonnull @.str.6) #11
  br label %ReleaseCamera.exit

8:                                                ; preds = %5
  %9 = getelementptr inbounds nuw i8, ptr %0, i64 20
  %10 = tail call i32 @SDL_AddAtomicInt_REAL(ptr noundef nonnull %9, i32 noundef 1) #11
  %11 = load ptr, ptr %0, align 8
  tail call void @SDL_LockMutex_REAL(ptr noundef %11) #11
  %12 = getelementptr inbounds nuw i8, ptr %0, i64 460
  %13 = load i32, ptr %12, align 4
  %14 = icmp sgt i32 %13, 0
  br i1 %14, label %15, label %17

15:                                               ; preds = %8
  %16 = getelementptr inbounds nuw i8, ptr %0, i64 84
  tail call void @llvm.memcpy.p0.p0.i64(ptr noundef nonnull align 4 dereferenceable(24) %1, ptr noundef nonnull align 4 dereferenceable(24) %16, i64 24, i1 false)
  br label %19

17:                                               ; preds = %8
  tail call void @llvm.memset.p0.i64(ptr noundef nonnull align 4 dereferenceable(24) %1, i8 0, i64 24, i1 false)
  %18 = tail call zeroext i1 (ptr, ...) @SDL_SetError_REAL(ptr noundef nonnull @.str.7) #11
  br label %19

19:                                               ; preds = %17, %15
  %.010 = phi i1 [ true, %15 ], [ %18, %17 ]
  %20 = load ptr, ptr %0, align 8
  tail call void @SDL_UnlockMutex_REAL(ptr noundef %20) #11
  %21 = tail call i32 @SDL_AddAtomicInt_REAL(ptr noundef nonnull %9, i32 noundef -1) #11
  %22 = icmp eq i32 %21, 1
  br i1 %22, label %23, label %ReleaseCamera.exit

23:                                               ; preds = %19
  %24 = load ptr, ptr getelementptr inbounds nuw (i8, ptr @camera_driver, i64 88), align 8
  tail call void @SDL_LockRWLockForWriting_REAL(ptr noundef %24) #11
  %25 = load ptr, ptr getelementptr inbounds nuw (i8, ptr @camera_driver, i64 96), align 8
  %26 = getelementptr inbounds nuw i8, ptr %0, i64 108
  %27 = load i32, ptr %26, align 4
  %28 = zext i32 %27 to i64
  %29 = inttoptr i64 %28 to ptr
  %30 = tail call zeroext i1 @SDL_RemoveFromHashTable(ptr noundef %25, ptr noundef %29) #11
  br i1 %30, label %31, label %33

31:                                               ; preds = %23
  %32 = tail call i32 @SDL_AddAtomicInt_REAL(ptr noundef nonnull getelementptr inbounds nuw (i8, ptr @camera_driver, i64 128), i32 noundef -1) #11
  br label %33

33:                                               ; preds = %31, %23
  %34 = load ptr, ptr getelementptr inbounds nuw (i8, ptr @camera_driver, i64 88), align 8
  tail call void @SDL_UnlockRWLock_REAL(ptr noundef %34) #11
  br label %ReleaseCamera.exit

ReleaseCamera.exit:                               ; preds = %33, %19, %6, %3
  %.0 = phi i1 [ %7, %6 ], [ %4, %3 ], [ %.010, %19 ], [ %.010, %33 ]
  ret i1 %.0
}